; Function Attrs: mustprogress uwtable
define noundef i32 @_ZN3zmq13ws_listener_t6acceptEv(ptr nocapture noundef nonnull readonly align 8 dereferenceable(1632) %this) local_unnamed_addr #0 align 2 {
entry:
  %ss = alloca %struct.sockaddr_storage, align 8
  %ss_len = alloca i32, align 4
  %_s = getelementptr inbounds i8, ptr %this, i64 1464
  %0 = load i32, ptr %_s, align 8
  %cmp.not = icmp eq i32 %0, -1
  br i1 %cmp.not, label %if.then, label %do.end

if.then:                                          ; preds = %entry
  %1 = load ptr, ptr @stderr, align 8
  %call = tail call i32 (ptr, ptr, ...) @fprintf(ptr noundef %1, ptr noundef nonnull @.str, ptr noundef nonnull @.str.4, ptr noundef nonnull @.str.2, i32 noundef 216) #13
  %2 = load ptr, ptr @stderr, align 8
  %call2 = tail call i32 @fflush(ptr noundef %2)
  tail call void @_ZN3zmq9zmq_abortEPKc(ptr noundef nonnull @.str.4)
  %.pre = load i32, ptr %_s, align 8
  br label %do.end

do.end:                                           ; preds = %entry, %if.then
  %3 = phi i32 [ %0, %entry ], [ %.pre, %if.then ]
  call void @llvm.memset.p0.i64(ptr noundef nonnull align 8 dereferenceable(128) %ss, i8 0, i64 128, i1 false)
  store i32 128, ptr %ss_len, align 4
  %call4 = call i32 @accept4(i32 noundef %3, ptr noundef nonnull %ss, ptr noundef nonnull %ss_len, i32 noundef 524288)
  %cmp5 = icmp eq i32 %call4, -1
  br i1 %cmp5, label %do.body7, label %if.end40

do.body7:                                         ; preds = %do.end
  %call8 = tail call ptr @__errno_location() #17
  %4 = load i32, ptr %call8, align 4
  switch i32 %4, label %lor.rhs [
    i32 11, label %return
    i32 4, label %return
    i32 103, label %return
    i32 71, label %return
    i32 105, label %return
    i32 12, label %return
    i32 24, label %return
    i32 23, label %return
  ]

lor.rhs:                                          ; preds = %do.body7
  %call35 = call ptr @strerror(i32 noundef %4) #14
  %5 = load ptr, ptr @stderr, align 8
  %call36 = call i32 (ptr, ptr, ...) @fprintf(ptr noundef %5, ptr noundef nonnull @.str.3, ptr noundef %call35, ptr noundef nonnull @.str.2, i32 noundef 247) #13
  %6 = load ptr, ptr @stderr, align 8
  %call37 = call i32 @fflush(ptr noundef %6)
  call void @_ZN3zmq9zmq_abortEPKc(ptr noundef %call35)
  br label %return

if.end40:                                         ; preds = %do.end
  call void @_ZN3zmq26make_socket_noninheritableEi(i32 noundef %call4)
  %call41 = call noundef i32 @_ZN3zmq13set_nosigpipeEi(i32 noundef %call4)
  %tobool.not = icmp eq i32 %call41, 0
  br i1 %tobool.not, label %if.end55, label %if.then42

if.then42:                                        ; preds = %if.end40
  %call43 = call i32 @close(i32 noundef %call4)
  %cmp45.not = icmp eq i32 %call43, 0
  br i1 %cmp45.not, label %return, label %if.then47

if.then47:                                        ; preds = %if.then42
  %call49 = tail call ptr @__errno_location() #17
  %7 = load i32, ptr %call49, align 4
  %call50 = call ptr @strerror(i32 noundef %7) #14
  %8 = load ptr, ptr @stderr, align 8
  %call51 = call i32 (ptr, ptr, ...) @fprintf(ptr noundef %8, ptr noundef nonnull @.str.3, ptr noundef %call50, ptr noundef nonnull @.str.2, i32 noundef 260) #13
  %9 = load ptr, ptr @stderr, align 8
  %call52 = call i32 @fflush(ptr noundef %9)
  call void @_ZN3zmq9zmq_abortEPKc(ptr noundef %call50)
  br label %return

if.end55:                                         ; preds = %if.end40
  %tos = getelementptr inbounds i8, ptr %this, i64 324
  %10 = load i32, ptr %tos, align 4
  %cmp56.not = icmp eq i32 %10, 0
  br i1 %cmp56.not, label %if.end60, label %if.then57

if.then57:                                        ; preds = %if.end55
  call void @_ZN3zmq22set_ip_type_of_serviceEii(i32 noundef %call4, i32 noundef %10)
  br label %if.end60

if.end60:                                         ; preds = %if.then57, %if.end55
  %priority = getelementptr inbounds i8, ptr %this, i64 328
  %11 = load i32, ptr %priority, align 8
  %cmp62.not = icmp eq i32 %11, 0
  br i1 %cmp62.not, label %return, label %if.then63

if.then63:                                        ; preds = %if.end60
  call void @_ZN3zmq19set_socket_priorityEii(i32 noundef %call4, i32 noundef %11)
  br label %return

return:                                           ; preds = %do.body7, %if.end60, %if.then63, %if.then47, %if.then42, %lor.rhs, %do.body7, %do.body7, %do.body7, %do.body7, %do.body7, %do.body7, %do.body7
  %retval.0 = phi i32 [ -1, %do.body7 ], [ -1, %do.body7 ], [ -1, %do.body7 ], [ -1, %do.body7 ], [ -1, %do.body7 ], [ -1, %do.body7 ], [ -1, %do.body7 ], [ -1, %lor.rhs ], [ -1, %if.then42 ], [ -1, %if.then47 ], [ %call4, %if.then63 ], [ %call4, %if.end60 ], [ -1, %do.body7 ]
  ret i32 %retval.0
}